target datalayout = "e-m:e-p270:32:32-p271:32:32-p272:64:64-i64:64-i128:128-f80:128-n8:16:32:64-S128"
target triple = "x86_64-pc-linux-gnu"

%struct.UriParserStateStructA = type { ptr, i32, ptr, ptr }

; Function Attrs: inlinehint nounwind uwtable
define internal void @uriStopSyntaxA(ptr noundef %0, ptr noundef %1, ptr noundef %2) #4 {
  %4 = alloca ptr, align 8
  %5 = alloca ptr, align 8
  %6 = alloca ptr, align 8
  store ptr %0, ptr %4, align 8, !tbaa !3
  store ptr %1, ptr %5, align 8, !tbaa !8
  store ptr %2, ptr %6, align 8, !tbaa !10
  %7 = load ptr, ptr %4, align 8, !tbaa !3
  %8 = getelementptr inbounds nuw %struct.UriParserStateStructA, ptr %7, i32 0, i32 0
  %9 = load ptr, ptr %8, align 8, !tbaa !12
  %10 = load ptr, ptr %6, align 8, !tbaa !10
  %11 = call i32 @uriFreeUriMembersMmA(ptr noundef %9, ptr noundef %10)
  %12 = load ptr, ptr %5, align 8, !tbaa !8
  %13 = load ptr, ptr %4, align 8, !tbaa !3
  %14 = getelementptr inbounds nuw %struct.UriParserStateStructA, ptr %13, i32 0, i32 2
  store ptr %12, ptr %14, align 8, !tbaa !17
  %15 = load ptr, ptr %4, align 8, !tbaa !3
  %16 = getelementptr inbounds nuw %struct.UriParserStateStructA, ptr %15, i32 0, i32 1
  store i32 1, ptr %16, align 8, !tbaa !18
  ret void
}

; Function Attrs: nounwind uwtable
define internal ptr @uriParsePctEncodedA(ptr noundef %0, ptr noundef %1, ptr noundef %2, ptr noundef %3) #0 {
  %5 = alloca ptr, align 8
  %6 = alloca ptr, align 8
  %7 = alloca ptr, align 8
  %8 = alloca ptr, align 8
  %9 = alloca ptr, align 8
  store ptr %0, ptr %6, align 8, !tbaa !3
  store ptr %1, ptr %7, align 8, !tbaa !8
  store ptr %2, ptr %8, align 8, !tbaa !8
  store ptr %3, ptr %9, align 8, !tbaa !10
  %10 = load ptr, ptr %7, align 8, !tbaa !8
  %11 = load ptr, ptr %8, align 8, !tbaa !8
  %12 = icmp uge ptr %10, %11
  br i1 %12, label %13, label %17

13:                                               ; preds = %4
  %14 = load ptr, ptr %6, align 8, !tbaa !3
  %15 = load ptr, ptr %8, align 8, !tbaa !8
  %16 = load ptr, ptr %9, align 8, !tbaa !10
  call void @uriStopSyntaxA(ptr noundef %14, ptr noundef %15, ptr noundef %16)
  store ptr null, ptr %5, align 8
  br label %58

17:                                               ; preds = %4
  %18 = load ptr, ptr %7, align 8, !tbaa !8
  %19 = getelementptr inbounds i8, ptr %18, i64 1
  %20 = load ptr, ptr %8, align 8, !tbaa !8
  %21 = icmp uge ptr %19, %20
  br i1 %21, label %22, label %26

22:                                               ; preds = %17
  %23 = load ptr, ptr %6, align 8, !tbaa !3
  %24 = load ptr, ptr %8, align 8, !tbaa !8
  %25 = load ptr, ptr %9, align 8, !tbaa !10
  call void @uriStopSyntaxA(ptr noundef %23, ptr noundef %24, ptr noundef %25)
  store ptr null, ptr %5, align 8
  br label %58

26:                                               ; preds = %17
  %27 = load ptr, ptr %7, align 8, !tbaa !8
  %28 = getelementptr inbounds i8, ptr %27, i64 1
  %29 = load i8, ptr %28, align 1, !tbaa !57
  %30 = sext i8 %29 to i32
  switch i32 %30, label %53 [
    i32 48, label %31
    i32 49, label %31
    i32 50, label %31
    i32 51, label %31
    i32 52, label %31
    i32 53, label %31
    i32 54, label %31
    i32 55, label %31
    i32 56, label %31
    i32 57, label %31
    i32 65, label %31
    i32 66, label %31
    i32 67, label %31
    i32 68, label %31
    i32 69, label %31
    i32 70, label %31
    i32 97, label %31
    i32 98, label %31
    i32 99, label %31
    i32 100, label %31
    i32 101, label %31
    i32 102, label %31
  ]

31:                                               ; preds = %26, %26, %26, %26, %26, %26, %26, %26, %26, %26, %26, %26, %26, %26, %26, %26, %26, %26, %26, %26, %26, %26
  %32 = load ptr, ptr %7, align 8, !tbaa !8
  %33 = getelementptr inbounds i8, ptr %32, i64 2
  %34 = load ptr, ptr %8, align 8, !tbaa !8
  %35 = icmp uge ptr %33, %34
  br i1 %35, label %36, label %40

36:                                               ; preds = %31
  %37 = load ptr, ptr %6, align 8, !tbaa !3
  %38 = load ptr, ptr %8, align 8, !tbaa !8
  %39 = load ptr, ptr %9, align 8, !tbaa !10
  call void @uriStopSyntaxA(ptr noundef %37, ptr noundef %38, ptr noundef %39)
  store ptr null, ptr %5, align 8
  br label %58

40:                                               ; preds = %31
  %41 = load ptr, ptr %7, align 8, !tbaa !8
  %42 = getelementptr inbounds i8, ptr %41, i64 2
  %43 = load i8, ptr %42, align 1, !tbaa !57
  %44 = sext i8 %43 to i32
  switch i32 %44, label %48 [
    i32 48, label %45
    i32 49, label %45
    i32 50, label %45
    i32 51, label %45
    i32 52, label %45
    i32 53, label %45
    i32 54, label %45
    i32 55, label %45
    i32 56, label %45
    i32 57, label %45
    i32 65, label %45
    i32 66, label %45
    i32 67, label %45
    i32 68, label %45
    i32 69, label %45
    i32 70, label %45
    i32 97, label %45
    i32 98, label %45
    i32 99, label %45
    i32 100, label %45
    i32 101, label %45
    i32 102, label %45
  ]

45:                                               ; preds = %40, %40, %40, %40, %40, %40, %40, %40, %40, %40, %40, %40, %40, %40, %40, %40, %40, %40, %40, %40, %40, %40
  %46 = load ptr, ptr %7, align 8, !tbaa !8
  %47 = getelementptr inbounds i8, ptr %46, i64 3
  store ptr %47, ptr %5, align 8
  br label %58

48:                                               ; preds = %40
  %49 = load ptr, ptr %6, align 8, !tbaa !3
  %50 = load ptr, ptr %7, align 8, !tbaa !8
  %51 = getelementptr inbounds i8, ptr %50, i64 2
  %52 = load ptr, ptr %9, align 8, !tbaa !10
  call void @uriStopSyntaxA(ptr noundef %49, ptr noundef %51, ptr noundef %52)
  store ptr null, ptr %5, align 8
  br label %58

53:                                               ; preds = %26
  %54 = load ptr, ptr %6, align 8, !tbaa !3
  %55 = load ptr, ptr %7, align 8, !tbaa !8
  %56 = getelementptr inbounds i8, ptr %55, i64 1
  %57 = load ptr, ptr %9, align 8, !tbaa !10
  call void @uriStopSyntaxA(ptr noundef %54, ptr noundef %56, ptr noundef %57)
  store ptr null, ptr %5, align 8
  br label %58

58:                                               ; preds = %53, %48, %45, %36, %22, %13
  %59 = load ptr, ptr %5, align 8
  ret ptr %59
}